; Function Attrs: nounwind uwtable
define dso_local range(i32 5, 7) i32 @Curl_resolver_error(ptr noundef %0) local_unnamed_addr #0 {
  %2 = getelementptr inbounds nuw i8, ptr %0, i64 32
  %3 = load ptr, ptr %2, align 8
  %4 = getelementptr inbounds nuw i8, ptr %3, i64 672
  %5 = load i32, ptr %4, align 8
  %6 = and i32 %5, 1
  %.not = icmp eq i32 %6, 0
  %. = sub nuw nsw i32 6, %6
  %.str.16..str.15 = select i1 %.not, ptr @.str.16, ptr @.str.15
  %7 = getelementptr inbounds nuw i8, ptr %0, i64 3552
  %8 = load ptr, ptr %7, align 8
  tail call void (ptr, ptr, ...) @Curl_failf(ptr noundef %0, ptr noundef nonnull @.str.17, ptr noundef nonnull %.str.16..str.15, ptr noundef %8) #12
  ret i32 %.
}